target datalayout = "e-m:e-p270:32:32-p271:32:32-p272:64:64-i64:64-i128:128-f80:128-n8:16:32:64-S128"
target triple = "x86_64-pc-linux-gnu"

%struct.Node = type { i32 }
%struct.Var = type { %struct.Expr, i32, i16, i32, i32, i32, ptr, i32, i32, i32, i16, i32 }
%struct.Expr = type { i32 }
%struct.PlaceHolderVar = type { %struct.Expr, ptr, ptr, ptr, i32, i32 }

; Function Attrs: nounwind uwtable
define internal zeroext i1 @contain_vars_of_level_walker(ptr noundef %0, ptr noundef %1) #0 {
  %3 = alloca i1, align 1
  %4 = alloca ptr, align 8
  %5 = alloca ptr, align 8
  %6 = alloca i8, align 1
  store ptr %0, ptr %4, align 8
  store ptr %1, ptr %5, align 8
  %7 = load ptr, ptr %4, align 8
  %8 = icmp eq ptr %7, null
  br i1 %8, label %9, label %10

9:                                                ; preds = %2
  store i1 false, ptr %3, align 1
  br label %71

10:                                               ; preds = %2
  %11 = load ptr, ptr %4, align 8
  %12 = getelementptr inbounds nuw %struct.Node, ptr %11, i32 0, i32 0
  %13 = load i32, ptr %12, align 4
  %14 = icmp eq i32 %13, 6
  br i1 %14, label %15, label %24

15:                                               ; preds = %10
  %16 = load ptr, ptr %4, align 8
  %17 = getelementptr inbounds nuw %struct.Var, ptr %16, i32 0, i32 7
  %18 = load i32, ptr %17, align 8
  %19 = load ptr, ptr %5, align 8
  %20 = load i32, ptr %19, align 4
  %21 = icmp eq i32 %18, %20
  br i1 %21, label %22, label %23

22:                                               ; preds = %15
  store i1 true, ptr %3, align 1
  br label %71

23:                                               ; preds = %15
  store i1 false, ptr %3, align 1
  br label %71

24:                                               ; preds = %10
  %25 = load ptr, ptr %4, align 8
  %26 = getelementptr inbounds nuw %struct.Node, ptr %25, i32 0, i32 0
  %27 = load i32, ptr %26, align 4
  %28 = icmp eq i32 %27, 58
  br i1 %28, label %29, label %35

29:                                               ; preds = %24
  %30 = load ptr, ptr %5, align 8
  %31 = load i32, ptr %30, align 4
  %32 = icmp eq i32 %31, 0
  br i1 %32, label %33, label %34

33:                                               ; preds = %29
  store i1 true, ptr %3, align 1
  br label %71

34:                                               ; preds = %29
  store i1 false, ptr %3, align 1
  br label %71

35:                                               ; preds = %24
  %36 = load ptr, ptr %4, align 8
  %37 = getelementptr inbounds nuw %struct.Node, ptr %36, i32 0, i32 0
  %38 = load i32, ptr %37, align 4
  %39 = icmp eq i32 %38, 318
  br i1 %39, label %40, label %49

40:                                               ; preds = %35
  %41 = load ptr, ptr %4, align 8
  %42 = getelementptr inbounds nuw %struct.PlaceHolderVar, ptr %41, i32 0, i32 5
  %43 = load i32, ptr %42, align 4
  %44 = load ptr, ptr %5, align 8
  %45 = load i32, ptr %44, align 4
  %46 = icmp eq i32 %43, %45
  br i1 %46, label %47, label %48

47:                                               ; preds = %40
  store i1 true, ptr %3, align 1
  br label %71

48:                                               ; preds = %40
  br label %49

49:                                               ; preds = %48, %35
  %50 = load ptr, ptr %4, align 8
  %51 = getelementptr inbounds nuw %struct.Node, ptr %50, i32 0, i32 0
  %52 = load i32, ptr %51, align 4
  %53 = icmp eq i32 %52, 67
  br i1 %53, label %54, label %67

54:                                               ; preds = %49
  call void @llvm.lifetime.start.p0(i64 1, ptr %6) #6
  %55 = load ptr, ptr %5, align 8
  %56 = load i32, ptr %55, align 4
  %57 = add i32 %56, 1
  store i32 %57, ptr %55, align 4
  %58 = load ptr, ptr %4, align 8
  %59 = load ptr, ptr %5, align 8
  %60 = call zeroext i1 @query_tree_walker_impl(ptr noundef %58, ptr noundef @contain_vars_of_level_walker, ptr noundef %59, i32 noundef 0)
  %61 = zext i1 %60 to i8
  store i8 %61, ptr %6, align 1
  %62 = load ptr, ptr %5, align 8
  %63 = load i32, ptr %62, align 4
  %64 = add i32 %63, -1
  store i32 %64, ptr %62, align 4
  %65 = load i8, ptr %6, align 1, !range !4, !noundef !5
  %66 = trunc i8 %65 to i1
  store i1 %66, ptr %3, align 1
  call void @llvm.lifetime.end.p0(i64 1, ptr %6) #6
  br label %71

67:                                               ; preds = %49
  %68 = load ptr, ptr %4, align 8
  %69 = load ptr, ptr %5, align 8
  %70 = call zeroext i1 @expression_tree_walker_impl(ptr noundef %68, ptr noundef @contain_vars_of_level_walker, ptr noundef %69)
  store i1 %70, ptr %3, align 1
  br label %71

71:                                               ; preds = %67, %54, %47, %34, %33, %23, %22, %9
  %72 = load i1, ptr %3, align 1
  ret i1 %72
}