; Function Attrs: nounwind uwtable
define internal zeroext i1 @contain_vars_of_level_walker(ptr noundef %0, ptr noundef %1) #0 {
  %3 = icmp eq ptr %0, null
  br i1 %3, label %26, label %4

4:                                                ; preds = %2
  %5 = load i32, ptr %0, align 4
  switch i32 %5, label %.thread [
    i32 6, label %6
    i32 58, label %11
    i32 318, label %14
    i32 67, label %19
  ]

6:                                                ; preds = %4
  %7 = getelementptr inbounds nuw i8, ptr %0, i64 32
  %8 = load i32, ptr %7, align 8
  %9 = load i32, ptr %1, align 4
  %10 = icmp eq i32 %8, %9
  br label %26

11:                                               ; preds = %4
  %12 = load i32, ptr %1, align 4
  %13 = icmp eq i32 %12, 0
  br label %26

14:                                               ; preds = %4
  %15 = getelementptr inbounds nuw i8, ptr %0, i64 36
  %16 = load i32, ptr %15, align 4
  %17 = load i32, ptr %1, align 4
  %18 = icmp eq i32 %16, %17
  br i1 %18, label %26, label %.thread

19:                                               ; preds = %4
  %20 = load i32, ptr %1, align 4
  %21 = add i32 %20, 1
  store i32 %21, ptr %1, align 4
  %22 = tail call zeroext i1 @query_tree_walker_impl(ptr noundef nonnull %0, ptr noundef nonnull @contain_vars_of_level_walker, ptr noundef nonnull %1, i32 noundef 0) #6
  %23 = load i32, ptr %1, align 4
  %24 = add i32 %23, -1
  store i32 %24, ptr %1, align 4
  br label %26

.thread:                                          ; preds = %4, %14
  %25 = tail call zeroext i1 @expression_tree_walker_impl(ptr noundef nonnull %0, ptr noundef nonnull @contain_vars_of_level_walker, ptr noundef %1) #6
  br label %26

26:                                               ; preds = %14, %11, %6, %2, %.thread, %19
  %.0 = phi i1 [ %22, %19 ], [ %25, %.thread ], [ false, %2 ], [ %10, %6 ], [ %13, %11 ], [ true, %14 ]
  ret i1 %.0
}